target datalayout = "e-m:e-p270:32:32-p271:32:32-p272:64:64-i64:64-i128:128-f80:128-n8:16:32:64-S128"
target triple = "x86_64-pc-linux-gnu"

@.str.6 = private unnamed_addr constant [41 x i8] c"../openssl/test/provider_internal_test.c\00", align 1
@expected_greeting1.expected_greeting = internal global [256 x i8] zeroinitializer, align 16
@.str.20 = private unnamed_addr constant [40 x i8] c"Hello OpenSSL %.20s, greetings from %s!\00", align 1
@.str.21 = private unnamed_addr constant [6 x i8] c"3.5.0\00", align 1
@.str.22 = private unnamed_addr constant [7 x i8] c"p_test\00", align 1
@.str.23 = private unnamed_addr constant [52 x i8] c"prov = ossl_provider_new(NULL, name, NULL, NULL, 0)\00", align 1

; Function Attrs: nounwind uwtable
define internal ptr @expected_greeting1(ptr noundef %0) #0 {
  %2 = alloca ptr, align 8
  store ptr %0, ptr %2, align 8, !tbaa !4
  %3 = load ptr, ptr %2, align 8, !tbaa !4
  %4 = call i32 (ptr, i64, ptr, ...) @BIO_snprintf(ptr noundef @expected_greeting1.expected_greeting, i64 noundef 256, ptr noundef @.str.20, ptr noundef @.str.21, ptr noundef %3)
  ret ptr @expected_greeting1.expected_greeting
}

; Function Attrs: nounwind uwtable
define internal i32 @test_loaded_provider() #0 {
  %1 = alloca ptr, align 8
  %2 = alloca ptr, align 8
  call void @llvm.lifetime.start.p0(i64 8, ptr %1) #3
  store ptr @.str.22, ptr %1, align 8, !tbaa !4
  call void @llvm.lifetime.start.p0(i64 8, ptr %2) #3
  store ptr null, ptr %2, align 8, !tbaa !9
  %3 = load ptr, ptr %1, align 8, !tbaa !4
  %4 = call ptr @ossl_provider_new(ptr noundef null, ptr noundef %3, ptr noundef null, ptr noundef null, i32 noundef 0)
  store ptr %4, ptr %2, align 8, !tbaa !9
  %5 = call i32 @test_ptr(ptr noundef @.str.6, i32 noundef 82, ptr noundef @.str.23, ptr noundef %4)
  %6 = icmp ne i32 %5, 0
  br i1 %6, label %7, label %13

7:                                                ; preds = %0
  %8 = load ptr, ptr %2, align 8, !tbaa !9
  %9 = load ptr, ptr %1, align 8, !tbaa !4
  %10 = call ptr @expected_greeting1(ptr noundef %9)
  %11 = call i32 @test_provider(ptr noundef %8, ptr noundef %10)
  %12 = icmp ne i32 %11, 0
  br label %13

13:                                               ; preds = %7, %0
  %14 = phi i1 [ false, %0 ], [ %12, %7 ]
  %15 = zext i1 %14 to i32
  call void @llvm.lifetime.end.p0(i64 8, ptr %2) #3
  call void @llvm.lifetime.end.p0(i64 8, ptr %1) #3
  ret i32 %15
}