; Function Attrs: nounwind uwtable
define internal range(i32 0, 2) i32 @test_loaded_provider() #0 {
  %1 = tail call ptr @ossl_provider_new(ptr noundef null, ptr noundef nonnull @.str.22, ptr noundef null, ptr noundef null, i32 noundef 0) #2
  %2 = tail call i32 @test_ptr(ptr noundef nonnull @.str.6, i32 noundef 82, ptr noundef nonnull @.str.23, ptr noundef %1) #2
  %.not = icmp eq i32 %2, 0
  br i1 %.not, label %6, label %3

3:                                                ; preds = %0
  %4 = tail call i32 (ptr, i64, ptr, ...) @BIO_snprintf(ptr noundef nonnull @expected_greeting1.expected_greeting, i64 noundef 256, ptr noundef nonnull @.str.20, ptr noundef nonnull @.str.21, ptr noundef nonnull @.str.22) #2
  %5 = tail call fastcc i32 @test_provider(ptr noundef %1, ptr noundef nonnull @expected_greeting1.expected_greeting)
  br label %6

6:                                                ; preds = %3, %0
  %7 = phi i32 [ 0, %0 ], [ %5, %3 ]
  ret i32 %7
}